; Function Attrs: mustprogress uwtable
define hidden void @_ZN4cvc58internal5proof19AlfProofPostprocess7processESt10shared_ptrINS0_9ProofNodeEE(ptr nocapture noundef nonnull readonly align 8 dereferenceable(24) %this, ptr nocapture noundef readonly %pf) local_unnamed_addr #3 align 2 personality ptr @__gxx_personality_v0 {
entry:
  %updater = alloca %"class.cvc5::internal::ProofNodeUpdater", align 8
  %agg.tmp = alloca %"class.std::shared_ptr", align 8
  %d_env = getelementptr inbounds i8, ptr %this, i64 8
  %0 = load ptr, ptr %d_env, align 8
  %d_cb = getelementptr inbounds i8, ptr %this, i64 16
  %1 = load ptr, ptr %d_cb, align 8
  call void @_ZN4cvc58internal16ProofNodeUpdaterC1ERNS0_3EnvERNS0_24ProofNodeUpdaterCallbackEbb(ptr noundef nonnull align 8 dereferenceable(58) %updater, ptr noundef nonnull align 8 dereferenceable(576) %0, ptr noundef nonnull align 8 dereferenceable(8) %1, i1 noundef zeroext false, i1 noundef zeroext true)
  %2 = load ptr, ptr %pf, align 8
  store ptr %2, ptr %agg.tmp, align 8
  %_M_refcount.i.i = getelementptr inbounds i8, ptr %agg.tmp, i64 8
  %_M_refcount3.i.i = getelementptr inbounds i8, ptr %pf, i64 8
  %3 = load ptr, ptr %_M_refcount3.i.i, align 8
  store ptr %3, ptr %_M_refcount.i.i, align 8
  %cmp.not.i.i.i = icmp eq ptr %3, null
  br i1 %cmp.not.i.i.i, label %_ZNSt10shared_ptrIN4cvc58internal9ProofNodeEEC2ERKS3_.exit, label %if.then.i.i.i

if.then.i.i.i:                                    ; preds = %entry
  %_M_use_count.i.i.i.i = getelementptr inbounds i8, ptr %3, i64 8
  %4 = load i8, ptr @__libc_single_threaded, align 1
  %tobool.i.i.not.i.i.i.i = icmp eq i8 %4, 0
  br i1 %tobool.i.i.not.i.i.i.i, label %if.else.i.i.i.i.i, label %if.then.i.i.i.i.i

if.then.i.i.i.i.i:                                ; preds = %if.then.i.i.i
  %5 = load i32, ptr %_M_use_count.i.i.i.i, align 4
  %add.i.i.i.i.i = add nsw i32 %5, 1
  store i32 %add.i.i.i.i.i, ptr %_M_use_count.i.i.i.i, align 4
  br label %_ZNSt10shared_ptrIN4cvc58internal9ProofNodeEEC2ERKS3_.exit

if.else.i.i.i.i.i:                                ; preds = %if.then.i.i.i
  %6 = atomicrmw volatile add ptr %_M_use_count.i.i.i.i, i32 1 acq_rel, align 4
  br label %_ZNSt10shared_ptrIN4cvc58internal9ProofNodeEEC2ERKS3_.exit

_ZNSt10shared_ptrIN4cvc58internal9ProofNodeEEC2ERKS3_.exit: ; preds = %entry, %if.then.i.i.i.i.i, %if.else.i.i.i.i.i
  invoke void @_ZN4cvc58internal16ProofNodeUpdater7processESt10shared_ptrINS0_9ProofNodeEE(ptr noundef nonnull align 8 dereferenceable(58) %updater, ptr noundef nonnull %agg.tmp)
          to label %invoke.cont unwind label %lpad

invoke.cont:                                      ; preds = %_ZNSt10shared_ptrIN4cvc58internal9ProofNodeEEC2ERKS3_.exit
  %7 = load ptr, ptr %_M_refcount.i.i, align 8
  %cmp.not.i.i.i2 = icmp eq ptr %7, null
  br i1 %cmp.not.i.i.i2, label %_ZNSt10shared_ptrIN4cvc58internal9ProofNodeEED2Ev.exit, label %if.then.i.i.i3

if.then.i.i.i3:                                   ; preds = %invoke.cont
  %_M_use_count.i.i.i.i4 = getelementptr inbounds i8, ptr %7, i64 8
  %8 = load atomic i64, ptr %_M_use_count.i.i.i.i4 acquire, align 8
  %cmp.i.i.i.i = icmp eq i64 %8, 4294967297
  %9 = trunc i64 %8 to i32
  br i1 %cmp.i.i.i.i, label %if.then.i.i.i.i, label %if.end.i.i.i.i

if.then.i.i.i.i:                                  ; preds = %if.then.i.i.i3
  store i32 0, ptr %_M_use_count.i.i.i.i4, align 8
  %_M_weak_count.i.i.i.i = getelementptr inbounds i8, ptr %7, i64 12
  store i32 0, ptr %_M_weak_count.i.i.i.i, align 4
  %vtable.i.i.i.i = load ptr, ptr %7, align 8
  %vfn.i.i.i.i = getelementptr inbounds i8, ptr %vtable.i.i.i.i, i64 16
  %10 = load ptr, ptr %vfn.i.i.i.i, align 8
  call void %10(ptr noundef nonnull align 8 dereferenceable(16) %7) #18
  br label %if.end8.sink.split.i.i.i.i

if.end.i.i.i.i:                                   ; preds = %if.then.i.i.i3
  %11 = load i8, ptr @__libc_single_threaded, align 1
  %tobool.i.not.i.i.i.i = icmp eq i8 %11, 0
  br i1 %tobool.i.not.i.i.i.i, label %if.else.i.i.i.i.i7, label %if.then.i.i.i.i.i5

if.then.i.i.i.i.i5:                               ; preds = %if.end.i.i.i.i
  %add.i.i.i.i.i6 = add nsw i32 %9, -1
  store i32 %add.i.i.i.i.i6, ptr %_M_use_count.i.i.i.i4, align 4
  br label %_ZN9__gnu_cxx27__exchange_and_add_dispatchEPii.exit.i.i.i.i

if.else.i.i.i.i.i7:                               ; preds = %if.end.i.i.i.i
  %12 = atomicrmw volatile add ptr %_M_use_count.i.i.i.i4, i32 -1 acq_rel, align 4
  br label %_ZN9__gnu_cxx27__exchange_and_add_dispatchEPii.exit.i.i.i.i

_ZN9__gnu_cxx27__exchange_and_add_dispatchEPii.exit.i.i.i.i: ; preds = %if.else.i.i.i.i.i7, %if.then.i.i.i.i.i5
  %retval.i.0.i.i.i.i = phi i32 [ %9, %if.then.i.i.i.i.i5 ], [ %12, %if.else.i.i.i.i.i7 ]
  %cmp6.i.i.i.i = icmp eq i32 %retval.i.0.i.i.i.i, 1
  br i1 %cmp6.i.i.i.i, label %if.then7.i.i.i.i, label %_ZNSt10shared_ptrIN4cvc58internal9ProofNodeEED2Ev.exit

if.then7.i.i.i.i:                                 ; preds = %_ZN9__gnu_cxx27__exchange_and_add_dispatchEPii.exit.i.i.i.i
  %vtable.i.i.i.i.i.i = load ptr, ptr %7, align 8
  %vfn.i.i.i.i.i.i = getelementptr inbounds i8, ptr %vtable.i.i.i.i.i.i, i64 16
  %13 = load ptr, ptr %vfn.i.i.i.i.i.i, align 8
  call void %13(ptr noundef nonnull align 8 dereferenceable(16) %7) #18
  %_M_weak_count.i.i.i.i.i.i = getelementptr inbounds i8, ptr %7, i64 12
  %14 = load i8, ptr @__libc_single_threaded, align 1
  %tobool.i.not.i.i.i.i.i.i = icmp eq i8 %14, 0
  br i1 %tobool.i.not.i.i.i.i.i.i, label %if.else.i.i.i.i.i.i.i, label %if.then.i.i.i.i.i.i.i

if.then.i.i.i.i.i.i.i:                            ; preds = %if.then7.i.i.i.i
  %15 = load i32, ptr %_M_weak_count.i.i.i.i.i.i, align 4
  %add.i.i.i.i.i.i.i = add nsw i32 %15, -1
  store i32 %add.i.i.i.i.i.i.i, ptr %_M_weak_count.i.i.i.i.i.i, align 4
  br label %_ZN9__gnu_cxx27__exchange_and_add_dispatchEPii.exit.i.i.i.i.i.i

if.else.i.i.i.i.i.i.i:                            ; preds = %if.then7.i.i.i.i
  %16 = atomicrmw volatile add ptr %_M_weak_count.i.i.i.i.i.i, i32 -1 acq_rel, align 4
  br label %_ZN9__gnu_cxx27__exchange_and_add_dispatchEPii.exit.i.i.i.i.i.i

_ZN9__gnu_cxx27__exchange_and_add_dispatchEPii.exit.i.i.i.i.i.i: ; preds = %if.else.i.i.i.i.i.i.i, %if.then.i.i.i.i.i.i.i
  %retval.i.0.i.i.i.i.i.i = phi i32 [ %15, %if.then.i.i.i.i.i.i.i ], [ %16, %if.else.i.i.i.i.i.i.i ]
  %cmp.i.i.i.i.i.i = icmp eq i32 %retval.i.0.i.i.i.i.i.i, 1
  br i1 %cmp.i.i.i.i.i.i, label %if.end8.sink.split.i.i.i.i, label %_ZNSt10shared_ptrIN4cvc58internal9ProofNodeEED2Ev.exit

if.end8.sink.split.i.i.i.i:                       ; preds = %_ZN9__gnu_cxx27__exchange_and_add_dispatchEPii.exit.i.i.i.i.i.i, %if.then.i.i.i.i
  %vtable2.i.i.i.i.i.i = load ptr, ptr %7, align 8
  %vfn3.i.i.i.i.i.i = getelementptr inbounds i8, ptr %vtable2.i.i.i.i.i.i, i64 24
  %17 = load ptr, ptr %vfn3.i.i.i.i.i.i, align 8
  call void %17(ptr noundef nonnull align 8 dereferenceable(16) %7) #18
  br label %_ZNSt10shared_ptrIN4cvc58internal9ProofNodeEED2Ev.exit

_ZNSt10shared_ptrIN4cvc58internal9ProofNodeEED2Ev.exit: ; preds = %invoke.cont, %_ZN9__gnu_cxx27__exchange_and_add_dispatchEPii.exit.i.i.i.i, %_ZN9__gnu_cxx27__exchange_and_add_dispatchEPii.exit.i.i.i.i.i.i, %if.end8.sink.split.i.i.i.i
  store ptr getelementptr inbounds ({ [4 x ptr] }, ptr @_ZTVN4cvc58internal16ProofNodeUpdaterE, i64 0, i32 0, i64 2), ptr %updater, align 8
  %d_freeAssumps.i = getelementptr inbounds i8, ptr %updater, i64 32
  %18 = load ptr, ptr %d_freeAssumps.i, align 8
  %_M_finish.i.i = getelementptr inbounds i8, ptr %updater, i64 40
  %19 = load ptr, ptr %_M_finish.i.i, align 8
  %cmp.not3.i.i.i.i.i = icmp eq ptr %18, %19
  br i1 %cmp.not3.i.i.i.i.i, label %invoke.cont.i.i, label %for.body.i.i.i.i.i

for.body.i.i.i.i.i:                               ; preds = %_ZNSt10shared_ptrIN4cvc58internal9ProofNodeEED2Ev.exit, %_ZSt8_DestroyIN4cvc58internal12NodeTemplateILb1EEEEvPT_.exit.i.i.i.i.i
  %__first.addr.04.i.i.i.i.i = phi ptr [ %incdec.ptr.i.i.i.i.i, %_ZSt8_DestroyIN4cvc58internal12NodeTemplateILb1EEEEvPT_.exit.i.i.i.i.i ], [ %18, %_ZNSt10shared_ptrIN4cvc58internal9ProofNodeEED2Ev.exit ]
  %20 = load ptr, ptr %__first.addr.04.i.i.i.i.i, align 8
  %bf.load.i.i.i.i.i.i.i.i = load i64, ptr %20, align 8
  %21 = and i64 %bf.load.i.i.i.i.i.i.i.i, 1152920405095219200
  %cmp.not.i.i.i.i.i.i.i.i = icmp eq i64 %21, 1152920405095219200
  br i1 %cmp.not.i.i.i.i.i.i.i.i, label %_ZSt8_DestroyIN4cvc58internal12NodeTemplateILb1EEEEvPT_.exit.i.i.i.i.i, label %if.then.i.i.i.i.i.i.i.i

if.then.i.i.i.i.i.i.i.i:                          ; preds = %for.body.i.i.i.i.i
  %bf.value.i.i.i.i.i.i.i.i = add i64 %bf.load.i.i.i.i.i.i.i.i, 1152920405095219200
  %bf.shl.i.i.i.i.i.i.i.i = and i64 %bf.value.i.i.i.i.i.i.i.i, 1152920405095219200
  %bf.clear7.i.i.i.i.i.i.i.i = and i64 %bf.load.i.i.i.i.i.i.i.i, -1152920405095219201
  %bf.set.i.i.i.i.i.i.i.i = or disjoint i64 %bf.shl.i.i.i.i.i.i.i.i, %bf.clear7.i.i.i.i.i.i.i.i
  store i64 %bf.set.i.i.i.i.i.i.i.i, ptr %20, align 8
  %cmp12.i.i.i.i.i.i.i.i = icmp eq i64 %bf.shl.i.i.i.i.i.i.i.i, 0
  br i1 %cmp12.i.i.i.i.i.i.i.i, label %if.then13.i.i.i.i.i.i.i.i, label %_ZSt8_DestroyIN4cvc58internal12NodeTemplateILb1EEEEvPT_.exit.i.i.i.i.i

if.then13.i.i.i.i.i.i.i.i:                        ; preds = %if.then.i.i.i.i.i.i.i.i
  invoke void @_ZN4cvc58internal4expr9NodeValue15markForDeletionEv(ptr noundef nonnull align 8 dereferenceable(16) %20)
          to label %_ZSt8_DestroyIN4cvc58internal12NodeTemplateILb1EEEEvPT_.exit.i.i.i.i.i unwind label %terminate.lpad.i.i.i.i.i.i.i

terminate.lpad.i.i.i.i.i.i.i:                     ; preds = %if.then13.i.i.i.i.i.i.i.i
  %22 = landingpad { ptr, i32 }
          catch ptr null
  %23 = extractvalue { ptr, i32 } %22, 0
  call void @__clang_call_terminate(ptr %23) #17
  unreachable

_ZSt8_DestroyIN4cvc58internal12NodeTemplateILb1EEEEvPT_.exit.i.i.i.i.i: ; preds = %if.then13.i.i.i.i.i.i.i.i, %if.then.i.i.i.i.i.i.i.i, %for.body.i.i.i.i.i
  %incdec.ptr.i.i.i.i.i = getelementptr inbounds i8, ptr %__first.addr.04.i.i.i.i.i, i64 8
  %cmp.not.i.i.i.i.i = icmp eq ptr %incdec.ptr.i.i.i.i.i, %19
  br i1 %cmp.not.i.i.i.i.i, label %invoke.contthread-pre-split.i.i, label %for.body.i.i.i.i.i, !llvm.loop !4

invoke.contthread-pre-split.i.i:                  ; preds = %_ZSt8_DestroyIN4cvc58internal12NodeTemplateILb1EEEEvPT_.exit.i.i.i.i.i
  %.pr.i.i = load ptr, ptr %d_freeAssumps.i, align 8
  br label %invoke.cont.i.i

invoke.cont.i.i:                                  ; preds = %invoke.contthread-pre-split.i.i, %_ZNSt10shared_ptrIN4cvc58internal9ProofNodeEED2Ev.exit
  %24 = phi ptr [ %.pr.i.i, %invoke.contthread-pre-split.i.i ], [ %18, %_ZNSt10shared_ptrIN4cvc58internal9ProofNodeEED2Ev.exit ]
  %tobool.not.i.i.i.i = icmp eq ptr %24, null
  br i1 %tobool.not.i.i.i.i, label %_ZN4cvc58internal16ProofNodeUpdaterD2Ev.exit, label %if.then.i.i.i.i8

if.then.i.i.i.i8:                                 ; preds = %invoke.cont.i.i
  call void @_ZdlPv(ptr noundef nonnull %24) #16
  br label %_ZN4cvc58internal16ProofNodeUpdaterD2Ev.exit

_ZN4cvc58internal16ProofNodeUpdaterD2Ev.exit:     ; preds = %invoke.cont.i.i, %if.then.i.i.i.i8
  ret void

lpad:                                             ; preds = %_ZNSt10shared_ptrIN4cvc58internal9ProofNodeEEC2ERKS3_.exit
  %25 = landingpad { ptr, i32 }
          cleanup
  call void @_ZNSt10shared_ptrIN4cvc58internal9ProofNodeEED2Ev(ptr noundef nonnull align 8 dereferenceable(16) %agg.tmp) #18
  call void @_ZN4cvc58internal16ProofNodeUpdaterD2Ev(ptr noundef nonnull align 8 dereferenceable(58) %updater) #18
  resume { ptr, i32 } %25
}